; ModuleID = '51/458.c'
source_filename = "51/458.c"
target datalayout = "e-m:e-p270:32:32-p271:32:32-p272:64:64-i64:64-f80:128-n8:16:32:64-S128"
target triple = "x86_64-pc-linux-gnu"

@.str = private unnamed_addr constant [4 x i8] c"%d\0A\00", align 1
@.str.1 = private unnamed_addr constant [4 x i8] c"NO\0A\00", align 1
@.str.2 = private unnamed_addr constant [4 x i8] c"%s\0A\00", align 1

; Function Attrs: noinline nounwind uwtable
define dso_local i32 @main() #0 {
  %1 = alloca i32, align 4
  %2 = alloca [501 x i8], align 16
  %3 = alloca [250 x [6 x i8]], align 16
  %4 = alloca [6 x i8], align 1
  %5 = alloca [250 x i32], align 16
  %6 = alloca i32, align 4
  %7 = alloca i32, align 4
  %8 = alloca i32, align 4
  %9 = alloca i32, align 4
  %10 = alloca i32, align 4
  store i32 0, i32* %1, align 4
  store i32 0, i32* %6, align 4
  %11 = call i32 (i8*, ...) @__isoc99_scanf(i8* getelementptr inbounds ([4 x i8], [4 x i8]* @.str, i64 0, i64 0), i32* %8)
  %12 = getelementptr inbounds [501 x i8], [501 x i8]* %2, i64 0, i64 0
  %13 = call i32 (i8*, ...) bitcast (i32 (...)* @gets to i32 (i8*, ...)*)(i8* %12)
  store i32 0, i32* %7, align 4
  store i32 0, i32* %10, align 4
  br label %14

14:                                               ; preds = %85, %0
  store i32 0, i32* %9, align 4
  br label %15

15:                                               ; preds = %29, %14
  %16 = load i32, i32* %9, align 4
  %17 = load i32, i32* %8, align 4
  %18 = icmp slt i32 %16, %17
  br i1 %18, label %19, label %32

19:                                               ; preds = %15
  %20 = load i32, i32* %9, align 4
  %21 = load i32, i32* %7, align 4
  %22 = add nsw i32 %20, %21
  %23 = sext i32 %22 to i64
  %24 = getelementptr inbounds [501 x i8], [501 x i8]* %2, i64 0, i64 %23
  %25 = load i8, i8* %24, align 1
  %26 = load i32, i32* %9, align 4
  %27 = sext i32 %26 to i64
  %28 = getelementptr inbounds [6 x i8], [6 x i8]* %4, i64 0, i64 %27
  store i8 %25, i8* %28, align 1
  br label %29

29:                                               ; preds = %19
  %30 = load i32, i32* %9, align 4
  %31 = add nsw i32 %30, 1
  store i32 %31, i32* %9, align 4
  br label %15

32:                                               ; preds = %15
  %33 = load i32, i32* %8, align 4
  %34 = sext i32 %33 to i64
  %35 = getelementptr inbounds [6 x i8], [6 x i8]* %4, i64 0, i64 %34
  store i8 0, i8* %35, align 1
  %36 = load i32, i32* %8, align 4
  %37 = sub nsw i32 %36, 1
  %38 = sext i32 %37 to i64
  %39 = getelementptr inbounds [6 x i8], [6 x i8]* %4, i64 0, i64 %38
  %40 = load i8, i8* %39, align 1
  %41 = sext i8 %40 to i32
  %42 = icmp eq i32 %41, 0
  br i1 %42, label %43, label %44

43:                                               ; preds = %32
  br label %90

44:                                               ; preds = %32
  store i32 0, i32* %9, align 4
  br label %45

45:                                               ; preds = %59, %44
  %46 = load i32, i32* %9, align 4
  %47 = load i32, i32* %10, align 4
  %48 = icmp slt i32 %46, %47
  br i1 %48, label %49, label %62

49:                                               ; preds = %45
  %50 = load i32, i32* %9, align 4
  %51 = sext i32 %50 to i64
  %52 = getelementptr inbounds [250 x [6 x i8]], [250 x [6 x i8]]* %3, i64 0, i64 %51
  %53 = getelementptr inbounds [6 x i8], [6 x i8]* %52, i64 0, i64 0
  %54 = getelementptr inbounds [6 x i8], [6 x i8]* %4, i64 0, i64 0
  %55 = call i32 @strcmp(i8* %53, i8* %54) #4
  %56 = icmp eq i32 %55, 0
  br i1 %56, label %57, label %58

57:                                               ; preds = %49
  br label %62

58:                                               ; preds = %49
  br label %59

59:                                               ; preds = %58
  %60 = load i32, i32* %9, align 4
  %61 = add nsw i32 %60, 1
  store i32 %61, i32* %9, align 4
  br label %45

62:                                               ; preds = %57, %45
  %63 = load i32, i32* %9, align 4
  %64 = load i32, i32* %10, align 4
  %65 = icmp ne i32 %63, %64
  br i1 %65, label %66, label %74

66:                                               ; preds = %62
  %67 = load i32, i32* %9, align 4
  %68 = sext i32 %67 to i64
  %69 = getelementptr inbounds [250 x i32], [250 x i32]* %5, i64 0, i64 %68
  %70 = load i32, i32* %69, align 4
  %71 = add nsw i32 %70, 1
  store i32 %71, i32* %69, align 4
  %72 = load i32, i32* %10, align 4
  %73 = add nsw i32 %72, -1
  store i32 %73, i32* %10, align 4
  br label %84

74:                                               ; preds = %62
  %75 = load i32, i32* %10, align 4
  %76 = sext i32 %75 to i64
  %77 = getelementptr inbounds [250 x [6 x i8]], [250 x [6 x i8]]* %3, i64 0, i64 %76
  %78 = getelementptr inbounds [6 x i8], [6 x i8]* %77, i64 0, i64 0
  %79 = getelementptr inbounds [6 x i8], [6 x i8]* %4, i64 0, i64 0
  %80 = call i8* @strcpy(i8* %78, i8* %79) #5
  %81 = load i32, i32* %10, align 4
  %82 = sext i32 %81 to i64
  %83 = getelementptr inbounds [250 x i32], [250 x i32]* %5, i64 0, i64 %82
  store i32 1, i32* %83, align 4
  br label %84

84:                                               ; preds = %74, %66
  br label %85

85:                                               ; preds = %84
  %86 = load i32, i32* %7, align 4
  %87 = add nsw i32 %86, 1
  store i32 %87, i32* %7, align 4
  %88 = load i32, i32* %10, align 4
  %89 = add nsw i32 %88, 1
  store i32 %89, i32* %10, align 4
  br label %14

90:                                               ; preds = %43
  store i32 0, i32* %7, align 4
  br label %91

91:                                               ; preds = %108, %90
  %92 = load i32, i32* %7, align 4
  %93 = load i32, i32* %10, align 4
  %94 = icmp slt i32 %92, %93
  br i1 %94, label %95, label %111

95:                                               ; preds = %91
  %96 = load i32, i32* %6, align 4
  %97 = load i32, i32* %7, align 4
  %98 = sext i32 %97 to i64
  %99 = getelementptr inbounds [250 x i32], [250 x i32]* %5, i64 0, i64 %98
  %100 = load i32, i32* %99, align 4
  %101 = icmp slt i32 %96, %100
  br i1 %101, label %102, label %107

102:                                              ; preds = %95
  %103 = load i32, i32* %7, align 4
  %104 = sext i32 %103 to i64
  %105 = getelementptr inbounds [250 x i32], [250 x i32]* %5, i64 0, i64 %104
  %106 = load i32, i32* %105, align 4
  store i32 %106, i32* %6, align 4
  br label %107

107:                                              ; preds = %102, %95
  br label %108

108:                                              ; preds = %107
  %109 = load i32, i32* %7, align 4
  %110 = add nsw i32 %109, 1
  store i32 %110, i32* %7, align 4
  br label %91

111:                                              ; preds = %91
  %112 = load i32, i32* %6, align 4
  %113 = icmp eq i32 %112, 1
  br i1 %113, label %114, label %116

114:                                              ; preds = %111
  %115 = call i32 (i8*, ...) @printf(i8* getelementptr inbounds ([4 x i8], [4 x i8]* @.str.1, i64 0, i64 0))
  br label %141

116:                                              ; preds = %111
  %117 = load i32, i32* %6, align 4
  %118 = call i32 (i8*, ...) @printf(i8* getelementptr inbounds ([4 x i8], [4 x i8]* @.str, i64 0, i64 0), i32 %117)
  store i32 0, i32* %7, align 4
  br label %119

119:                                              ; preds = %137, %116
  %120 = load i32, i32* %7, align 4
  %121 = load i32, i32* %10, align 4
  %122 = icmp slt i32 %120, %121
  br i1 %122, label %123, label %140

123:                                              ; preds = %119
  %124 = load i32, i32* %6, align 4
  %125 = load i32, i32* %7, align 4
  %126 = sext i32 %125 to i64
  %127 = getelementptr inbounds [250 x i32], [250 x i32]* %5, i64 0, i64 %126
  %128 = load i32, i32* %127, align 4
  %129 = icmp eq i32 %124, %128
  br i1 %129, label %130, label %136

130:                                              ; preds = %123
  %131 = load i32, i32* %7, align 4
  %132 = sext i32 %131 to i64
  %133 = getelementptr inbounds [250 x [6 x i8]], [250 x [6 x i8]]* %3, i64 0, i64 %132
  %134 = getelementptr inbounds [6 x i8], [6 x i8]* %133, i64 0, i64 0
  %135 = call i32 (i8*, ...) @printf(i8* getelementptr inbounds ([4 x i8], [4 x i8]* @.str.2, i64 0, i64 0), i8* %134)
  br label %136

136:                                              ; preds = %130, %123
  br label %137

137:                                              ; preds = %136
  %138 = load i32, i32* %7, align 4
  %139 = add nsw i32 %138, 1
  store i32 %139, i32* %7, align 4
  br label %119

140:                                              ; preds = %119
  br label %141

141:                                              ; preds = %140, %114
  ret i32 0
}

declare dso_local i32 @__isoc99_scanf(i8*, ...) #1

declare dso_local i32 @gets(...) #1

; Function Attrs: nounwind readonly
declare dso_local i32 @strcmp(i8*, i8*) #2

; Function Attrs: nounwind
declare dso_local i8* @strcpy(i8*, i8*) #3

declare dso_local i32 @printf(i8*, ...) #1


!llvm.module.flags = !{!0}
!llvm.ident = !{!1}

!0 = !{i32 1, !"wchar_size", i32 4}
!1 = !{!"clang version 10.0.0-4ubuntu1 "}
